target datalayout = "e-m:e-p270:32:32-p271:32:32-p272:64:64-i64:64-i128:128-f80:128-n8:16:32:64-S128"
target triple = "x86_64-pc-linux-gnu"

%struct._GLFWinitconfig = type { i32, i32, i32, ptr, %struct.anon.0, %struct.anon.1, %struct.anon.2 }
%struct.anon.0 = type { i32, i32 }
%struct.anon.1 = type { i32 }
%struct.anon.2 = type { i32 }

@.str.18 = private unnamed_addr constant [25 x i8] c"Invalid init hint 0x%08X\00", align 1
@_glfwInitHints = internal global { i32, i32, i32, [4 x i8], ptr, %struct.anon.0, %struct.anon.1, %struct.anon.2 } { i32 1, i32 225281, i32 393216, [4 x i8] zeroinitializer, ptr null, %struct.anon.0 { i32 1, i32 1 }, %struct.anon.1 { i32 1 }, %struct.anon.2 { i32 229377 } }, align 8

; Function Attrs: nounwind uwtable
define void @glfwInitHint(i32 noundef %0, i32 noundef %1) #0 {
  %3 = alloca i32, align 4
  %4 = alloca i32, align 4
  store i32 %0, ptr %3, align 4, !tbaa !8
  store i32 %1, ptr %4, align 4, !tbaa !8
  %5 = load i32, ptr %3, align 4, !tbaa !8
  switch i32 %5, label %20 [
    i32 327681, label %6
    i32 327682, label %8
    i32 327683, label %10
    i32 331777, label %12
    i32 331778, label %14
    i32 335873, label %16
    i32 339969, label %18
  ]

6:                                                ; preds = %2
  %7 = load i32, ptr %4, align 4, !tbaa !8
  store i32 %7, ptr @_glfwInitHints, align 8, !tbaa !137
  br label %22

8:                                                ; preds = %2
  %9 = load i32, ptr %4, align 4, !tbaa !8
  store i32 %9, ptr getelementptr inbounds nuw (%struct._GLFWinitconfig, ptr @_glfwInitHints, i32 0, i32 1), align 4, !tbaa !138
  br label %22

10:                                               ; preds = %2
  %11 = load i32, ptr %4, align 4, !tbaa !8
  store i32 %11, ptr getelementptr inbounds nuw (%struct._GLFWinitconfig, ptr @_glfwInitHints, i32 0, i32 2), align 8, !tbaa !139
  br label %22

12:                                               ; preds = %2
  %13 = load i32, ptr %4, align 4, !tbaa !8
  store i32 %13, ptr getelementptr inbounds nuw (%struct.anon.0, ptr getelementptr inbounds nuw (%struct._GLFWinitconfig, ptr @_glfwInitHints, i32 0, i32 4), i32 0, i32 1), align 4, !tbaa !140
  br label %22

14:                                               ; preds = %2
  %15 = load i32, ptr %4, align 4, !tbaa !8
  store i32 %15, ptr getelementptr inbounds nuw (%struct._GLFWinitconfig, ptr @_glfwInitHints, i32 0, i32 4), align 8, !tbaa !141
  br label %22

16:                                               ; preds = %2
  %17 = load i32, ptr %4, align 4, !tbaa !8
  store i32 %17, ptr getelementptr inbounds nuw (%struct._GLFWinitconfig, ptr @_glfwInitHints, i32 0, i32 5), align 8, !tbaa !142
  br label %22

18:                                               ; preds = %2
  %19 = load i32, ptr %4, align 4, !tbaa !8
  store i32 %19, ptr getelementptr inbounds nuw (%struct._GLFWinitconfig, ptr @_glfwInitHints, i32 0, i32 6), align 4, !tbaa !143
  br label %22

20:                                               ; preds = %2
  %21 = load i32, ptr %3, align 4, !tbaa !8
  call void (i32, ptr, ...) @_glfwInputError(i32 noundef 65539, ptr noundef @.str.18, i32 noundef %21)
  br label %22

22:                                               ; preds = %20, %18, %16, %14, %12, %10, %8, %6
  ret void
}