; Function Attrs: nounwind uwtable
define void @glfwInitHint(i32 noundef %0, i32 noundef %1) local_unnamed_addr #2 {
  switch i32 %0, label %10 [
    i32 327681, label %3
    i32 327682, label %4
    i32 327683, label %5
    i32 331777, label %6
    i32 331778, label %7
    i32 335873, label %8
    i32 339969, label %9
  ]

3:                                                ; preds = %2
  store i32 %1, ptr @_glfwInitHints, align 8, !tbaa !131
  br label %11

4:                                                ; preds = %2
  store i32 %1, ptr getelementptr inbounds nuw (i8, ptr @_glfwInitHints, i64 4), align 4, !tbaa !132
  br label %11

5:                                                ; preds = %2
  store i32 %1, ptr getelementptr inbounds nuw (i8, ptr @_glfwInitHints, i64 8), align 8, !tbaa !133
  br label %11

6:                                                ; preds = %2
  store i32 %1, ptr getelementptr inbounds nuw (i8, ptr @_glfwInitHints, i64 28), align 4, !tbaa !134
  br label %11

7:                                                ; preds = %2
  store i32 %1, ptr getelementptr inbounds nuw (i8, ptr @_glfwInitHints, i64 24), align 8, !tbaa !135
  br label %11

8:                                                ; preds = %2
  store i32 %1, ptr getelementptr inbounds nuw (i8, ptr @_glfwInitHints, i64 32), align 8, !tbaa !136
  br label %11

9:                                                ; preds = %2
  store i32 %1, ptr getelementptr inbounds nuw (i8, ptr @_glfwInitHints, i64 36), align 4, !tbaa !137
  br label %11

10:                                               ; preds = %2
  tail call void (i32, ptr, ...) @_glfwInputError(i32 noundef 65539, ptr noundef nonnull @.str.18, i32 noundef %0)
  br label %11

11:                                               ; preds = %10, %9, %8, %7, %6, %5, %4, %3
  ret void
}